Certificate:
    Data:
        Version: 3 (0x2)
        Serial Number: 4096 (0x1000)
        Signature Algorithm: sha256WithRSAEncryption
        Issuer: C=VN, ST=Ho Chi Minh, L=quan 5, O=hcmus, OU=thanh-tu, CN=tt2022.com/emailAddress=tt2022@test.com
        Validity
            Not Before: May 25 14:51:51 2022 GMT
            Not After : May 25 14:51:51 2023 GMT
        Subject: C=VN, ST=Ho Chi Minh, L=Quan 1, O=tt, OU=thanh-tu-web-server, CN=tt2022/emailAddress=tt2022@test.com
        Subject Public Key Info:
            Public Key Algorithm: rsaEncryption
                RSA Public-Key: (2048 bit)
                Modulus:
                    00:a5:6d:91:8e:5f:e3:68:d2:61:90:11:5b:81:c8:
                    85:4f:38:a8:41:59:02:20:99:76:05:dd:b6:75:87:
                    d0:62:31:d7:fb:32:ed:90:1f:ab:ab:45:27:a8:35:
                    e4:8d:b7:4a:77:76:ac:da:10:8b:26:52:43:72:b5:
                    87:e6:62:84:de:8f:fe:31:3c:81:f3:4a:f8:7e:bc:
                    ab:9a:0b:57:0d:c4:c5:f7:09:2b:7c:a5:c0:03:ef:
                    2f:16:e0:c3:b7:7b:18:48:5c:44:0e:e0:bf:ae:a1:
                    f4:c8:f3:43:39:0a:75:a0:a5:41:64:ae:58:e5:21:
                    37:ec:57:e8:47:74:ee:45:b9:29:0e:81:5e:54:80:
                    3e:b3:94:85:9b:e6:c5:11:44:b1:47:a1:01:8f:cc:
                    18:ac:5f:86:60:f9:fa:91:7c:c8:65:3c:05:bb:58:
                    6d:32:98:9b:64:97:dc:59:02:ce:b5:6d:cf:73:d3:
                    03:7a:ed:42:b0:dd:f5:c3:ef:04:8a:b7:c4:20:7b:
                    7d:7f:ef:77:db:84:1f:a3:4f:af:6c:35:fd:3a:ba:
                    13:bd:93:3d:09:c4:33:4a:be:50:d5:55:d3:0e:c7:
                    2a:0b:c6:76:75:52:1e:15:88:d6:d7:c4:71:02:3e:
                    e6:7b:7d:57:25:5e:2c:80:e2:29:cc:05:59:dc:29:
                    e1:81
                Exponent: 65537 (0x10001)
        X509v3 extensions:
            X509v3 Basic Constraints: 
                CA:FALSE
            Netscape Comment: 
                OpenSSL Generated Certificate
            X509v3 Subject Key Identifier: 
                B7:C5:2C:AF:88:6A:BE:A4:8B:CE:5C:CB:65:58:8F:45:A2:C6:DB:03
            X509v3 Authority Key Identifier: 
                keyid:37:E1:74:A9:11:93:05:1C:F5:F8:BF:4F:C7:C8:33:F0:E6:41:7F:5E

    Signature Algorithm: sha256WithRSAEncryption
         0b:45:5a:07:e2:c5:b8:52:99:a7:fc:88:c9:4f:8a:f9:3b:53:
         68:d9:39:da:58:39:96:d0:18:72:f6:6e:fe:91:a5:2f:96:c3:
         18:49:3e:b6:0d:e7:e6:2a:b1:7f:64:48:78:cd:c1:04:ab:74:
         8a:e7:e4:f5:bf:ac:dd:fa:bc:68:55:34:9a:6e:72:a3:e4:f8:
         d9:cd:6b:62:5e:e1:bf:ca:f6:99:7c:19:9c:85:29:db:8c:f9:
         8b:ee:6d:2d:a3:dd:03:be:b0:48:84:0e:c1:e0:82:26:08:b2:
         18:f8:77:fa:ad:e3:14:1a:b1:a3:49:28:57:44:55:cd:ce:91:
         0e:92:a4:d9:17:3d:a8:13:09:ed:e4:8c:25:51:51:1a:a7:b9:
         a9:05:85:3f:e9:a6:92:ca:3f:0a:27:51:bc:5e:32:23:52:07:
         f9:52:d5:3c:41:7a:38:74:fd:cd:1b:d3:c0:96:a5:88:22:66:
         b6:b6:5b:c5:17:9b:c7:d4:96:1d:85:a3:82:cb:8c:b1:30:8c:
         1a:d9:cf:80:4f:c8:7b:12:c8:e2:64:c4:a2:a7:61:a1:52:3d:
         b9:b1:86:db:17:51:65:18:11:93:cf:69:3e:c7:d6:cc:ed:68:
         40:69:09:43:0c:8e:32:1d:1b:35:34:f8:b8:80:73:c0:6b:a4:
         ca:bf:d3:17:71:a5:e2:58:2a:b4:b3:b4:03:64:a3:95:34:35:
         10:09:5c:69:1d:09:88:4e:5c:72:dd:7b:fd:c8:91:21:01:29:
         c7:52:00:c1:74:a5:fc:a3:81:86:5f:45:74:bc:db:4f:3f:89:
         83:a2:55:1a:3d:e9:db:b7:96:20:59:69:57:8f:89:68:4e:16:
         e9:9b:5a:0c:69:e9:69:48:99:73:fa:b0:69:c9:e7:4f:3f:83:
         db:1e:61:01:61:28:16:a7:11:20:44:8e:06:2b:3a:f7:2e:20:
         c1:0c:16:74:5d:58:5f:fc:5a:b9:24:23:02:04:05:ae:f1:55:
         35:e8:3b:d0:22:73:a7:fb:b3:b6:03:85:fd:0e:7a:d8:bf:ed:
         c3:a7:bb:29:b2:1e:32:dc:5f:00:f3:2d:7e:2a:ea:b4:3d:42:
         b8:2c:67:a9:7b:4e:a9:1c:ee:e6:99:a6:3b:e1:c2:ff:43:d8:
         5e:b9:f9:6f:52:7f:21:de:d4:5c:73:a9:7d:c7:75:72:2a:29:
         f1:96:50:aa:4b:ad:54:e4:2b:7d:ac:cc:b8:a1:c0:46:b3:9f:
         e1:d8:5f:56:84:e9:45:ea:b2:d5:f4:b4:fa:92:4c:03:15:ac:
         68:bf:af:53:af:5d:dc:7e:17:ea:62:7c:9d:6f:14:64:36:8c:
         6b:62:a7:45:c0:dd:60:c9
-----BEGIN CERTIFICATE-----
MIIFFTCCAv2gAwIBAgICEAAwDQYJKoZIhvcNAQELBQAwgYwxCzAJBgNVBAYTAlZO
MRQwEgYDVQQIDAtIbyBDaGkgTWluaDEPMA0GA1UEBwwGcXVhbiA1MQ4wDAYDVQQK
DAVoY211czERMA8GA1UECwwIdGhhbmgtdHUxEzARBgNVBAMMCnR0MjAyMi5jb20x
HjAcBgkqhkiG9w0BCQEWD3R0MjAyMkB0ZXN0LmNvbTAeFw0yMjA1MjUxNDUxNTFa
Fw0yMzA1MjUxNDUxNTFaMIGQMQswCQYDVQQGEwJWTjEUMBIGA1UECAwLSG8gQ2hp
IE1pbmgxDzANBgNVBAcMBlF1YW4gMTELMAkGA1UECgwCdHQxHDAaBgNVBAsME3Ro
YW5oLXR1LXdlYi1zZXJ2ZXIxDzANBgNVBAMMBnR0MjAyMjEeMBwGCSqGSIb3DQEJ
ARYPdHQyMDIyQHRlc3QuY29tMIIBIjANBgkqhkiG9w0BAQEFAAOCAQ8AMIIBCgKC
AQEApW2Rjl/jaNJhkBFbgciFTzioQVkCIJl2Bd22dYfQYjHX+zLtkB+rq0UnqDXk
jbdKd3as2hCLJlJDcrWH5mKE3o/+MTyB80r4fryrmgtXDcTF9wkrfKXAA+8vFuDD
t3sYSFxEDuC/rqH0yPNDOQp1oKVBZK5Y5SE37FfoR3TuRbkpDoFeVIA+s5SFm+bF
EUSxR6EBj8wYrF+GYPn6kXzIZTwFu1htMpibZJfcWQLOtW3Pc9MDeu1CsN31w+8E
irfEIHt9f+9324Qfo0+vbDX9OroTvZM9CcQzSr5Q1VXTDscqC8Z2dVIeFYjW18Rx
Aj7me31XJV4sgOIpzAVZ3CnhgQIDAQABo3sweTAJBgNVHRMEAjAAMCwGCWCGSAGG
+EIBDQQfFh1PcGVuU1NMIEdlbmVyYXRlZCBDZXJ0aWZpY2F0ZTAdBgNVHQ4EFgQU
t8Usr4hqvqSLzlzLZViPRaLG2wMwHwYDVR0jBBgwFoAUN+F0qRGTBRz1+L9Px8gz
8OZBf14wDQYJKoZIhvcNAQELBQADggIBAAtFWgfixbhSmaf8iMlPivk7U2jZOdpY
OZbQGHL2bv6RpS+WwxhJPrYN5+YqsX9kSHjNwQSrdIrn5PW/rN36vGhVNJpucqPk
+NnNa2Je4b/K9pl8GZyFKduM+YvubS2j3QO+sEiEDsHggiYIshj4d/qt4xQasaNJ
KFdEVc3OkQ6SpNkXPagTCe3kjCVRURqnuakFhT/pppLKPwonUbxeMiNSB/lS1TxB
ejh0/c0b08CWpYgiZra2W8UXm8fUlh2Fo4LLjLEwjBrZz4BPyHsSyOJkxKKnYaFS
PbmxhtsXUWUYEZPPaT7H1sztaEBpCUMMjjIdGzU0+LiAc8BrpMq/0xdxpeJYKrSz
tANko5U0NRAJXGkdCYhOXHLde/3IkSEBKcdSAMF0pfyjgYZfRXS8208/iYOiVRo9
6du3liBZaVePiWhOFumbWgxp6WlImXP6sGnJ508/g9seYQFhKBanESBEjgYrOvcu
IMEMFnRdWF/8WrkkIwIEBa7xVTXoO9Aic6f7s7YDhf0Oeti/7cOnuymyHjLcXwDz
LX4q6rQ9QrgsZ6l7Tqkc7uaZpjvhwv9D2F65+W9SfyHe1FxzqX3HdXIqKfGWUKpL
rVTkK32szLihwEazn+HYX1aE6UXqstX0tPqSTAMVrGi/r1OvXdx+F+pifJ1vFGQ2
jGtip0XA3WDJ
-----END CERTIFICATE-----
