Certificate:
    Data:
        Version: 3 (0x2)
        Serial Number: 4097 (0x1001)
        Signature Algorithm: sha256WithRSAEncryption
        Issuer: C=VN, ST=Ho Chi Minh, L=quan 5, O=hcmus, OU=thanh-tu, CN=tt2022.com/emailAddress=tt2022@test.com
        Validity
            Not Before: May 25 15:15:42 2022 GMT
            Not After : May 25 15:15:42 2023 GMT
        Subject: C=VN, O=thanh-tu Inc., CN=www.tt2022.com
        Subject Public Key Info:
            Public Key Algorithm: rsaEncryption
                RSA Public-Key: (2048 bit)
                Modulus:
                    00:a5:6d:91:8e:5f:e3:68:d2:61:90:11:5b:81:c8:
                    85:4f:38:a8:41:59:02:20:99:76:05:dd:b6:75:87:
                    d0:62:31:d7:fb:32:ed:90:1f:ab:ab:45:27:a8:35:
                    e4:8d:b7:4a:77:76:ac:da:10:8b:26:52:43:72:b5:
                    87:e6:62:84:de:8f:fe:31:3c:81:f3:4a:f8:7e:bc:
                    ab:9a:0b:57:0d:c4:c5:f7:09:2b:7c:a5:c0:03:ef:
                    2f:16:e0:c3:b7:7b:18:48:5c:44:0e:e0:bf:ae:a1:
                    f4:c8:f3:43:39:0a:75:a0:a5:41:64:ae:58:e5:21:
                    37:ec:57:e8:47:74:ee:45:b9:29:0e:81:5e:54:80:
                    3e:b3:94:85:9b:e6:c5:11:44:b1:47:a1:01:8f:cc:
                    18:ac:5f:86:60:f9:fa:91:7c:c8:65:3c:05:bb:58:
                    6d:32:98:9b:64:97:dc:59:02:ce:b5:6d:cf:73:d3:
                    03:7a:ed:42:b0:dd:f5:c3:ef:04:8a:b7:c4:20:7b:
                    7d:7f:ef:77:db:84:1f:a3:4f:af:6c:35:fd:3a:ba:
                    13:bd:93:3d:09:c4:33:4a:be:50:d5:55:d3:0e:c7:
                    2a:0b:c6:76:75:52:1e:15:88:d6:d7:c4:71:02:3e:
                    e6:7b:7d:57:25:5e:2c:80:e2:29:cc:05:59:dc:29:
                    e1:81
                Exponent: 65537 (0x10001)
        X509v3 extensions:
            X509v3 Basic Constraints: 
                CA:FALSE
            Netscape Comment: 
                OpenSSL Generated Certificate
            X509v3 Subject Key Identifier: 
                B7:C5:2C:AF:88:6A:BE:A4:8B:CE:5C:CB:65:58:8F:45:A2:C6:DB:03
            X509v3 Authority Key Identifier: 
                keyid:37:E1:74:A9:11:93:05:1C:F5:F8:BF:4F:C7:C8:33:F0:E6:41:7F:5E

    Signature Algorithm: sha256WithRSAEncryption
         b5:1a:57:1c:79:e4:b8:ed:b1:ac:a6:a8:d8:7b:1a:72:df:d2:
         93:87:f1:cd:7d:a5:b1:05:4b:60:9b:6c:cf:b1:0d:65:f0:42:
         91:ab:09:bb:af:4b:30:5b:2a:a9:71:1d:96:d6:44:11:a2:d2:
         48:20:d4:33:eb:06:3c:f5:f3:2f:e8:f0:f2:a8:cc:8c:83:fe:
         fa:78:af:0a:65:04:18:65:5d:5c:a3:ce:83:ad:4b:e5:c0:94:
         1a:32:0c:1a:79:c7:3d:69:77:da:64:58:43:51:94:6e:13:cb:
         8d:7e:0c:5e:af:10:a0:95:79:ed:81:55:30:f5:6c:ad:9e:66:
         c7:fa:c1:8e:3c:63:70:0e:19:70:83:02:bb:48:30:36:2e:4a:
         92:c5:61:33:55:c0:36:80:99:66:d5:57:2a:63:d6:3d:76:f5:
         f7:79:fd:2d:c4:33:de:91:0b:f4:09:42:41:12:34:5c:37:18:
         67:52:a6:d4:97:4f:5f:b7:45:b4:6c:4c:fe:f1:ef:59:b9:8a:
         fe:17:ce:77:4f:90:2d:20:4b:e4:09:2a:56:26:9c:9d:5a:51:
         49:58:b6:89:59:61:66:b4:44:ea:61:b0:bc:94:7a:72:48:68:
         22:6b:c8:91:a2:4f:8f:76:3e:9e:c9:cc:7a:bd:4f:76:aa:1f:
         19:e7:b8:60:8e:83:40:ff:0f:d3:f9:60:2a:c4:b7:41:aa:d1:
         9b:87:fa:c2:8a:77:30:27:61:f7:3c:8a:c6:f3:ee:36:23:ca:
         86:04:4c:80:76:ac:62:21:e0:88:83:fd:a0:c8:ab:4d:6e:4e:
         58:05:4e:20:a4:f8:3e:db:b8:a4:e6:17:7c:20:e4:6a:35:0b:
         e3:f2:99:70:50:9b:31:4b:93:f4:37:a2:fa:0f:95:f9:65:d1:
         cd:45:25:02:81:65:87:e6:cc:58:8f:f1:a9:fa:69:64:39:0f:
         be:66:53:e5:34:ed:2a:d5:db:39:a3:d0:f4:44:b3:45:b1:da:
         26:2f:c9:00:f8:03:52:11:53:a4:5e:88:3d:d7:bb:e4:8d:03:
         62:05:70:e4:8d:f7:04:5f:aa:a9:54:d7:a7:68:79:b4:be:85:
         3a:82:1f:00:da:7e:e1:b9:cf:b6:b6:ee:47:11:42:65:96:ff:
         40:5c:ca:77:2a:3e:7c:dc:72:f9:8b:11:7f:58:dc:fa:a0:8d:
         48:19:dc:e5:5e:35:f4:f9:37:3f:52:e3:56:94:05:ef:12:ab:
         9b:6b:65:de:36:a4:f7:d7:36:c5:4a:ed:6f:fc:db:bf:bf:f9:
         e7:d6:d6:0a:b7:6f:95:7d:fc:1e:bc:6b:0e:f3:e9:19:bb:7a:
         a0:6a:87:b9:a8:c1:5d:36
-----BEGIN CERTIFICATE-----
MIIEwjCCAqqgAwIBAgICEAEwDQYJKoZIhvcNAQELBQAwgYwxCzAJBgNVBAYTAlZO
MRQwEgYDVQQIDAtIbyBDaGkgTWluaDEPMA0GA1UEBwwGcXVhbiA1MQ4wDAYDVQQK
DAVoY211czERMA8GA1UECwwIdGhhbmgtdHUxEzARBgNVBAMMCnR0MjAyMi5jb20x
HjAcBgkqhkiG9w0BCQEWD3R0MjAyMkB0ZXN0LmNvbTAeFw0yMjA1MjUxNTE1NDJa
Fw0yMzA1MjUxNTE1NDJaMD4xCzAJBgNVBAYTAlZOMRYwFAYDVQQKDA10aGFuaC10
dSBJbmMuMRcwFQYDVQQDDA53d3cudHQyMDIyLmNvbTCCASIwDQYJKoZIhvcNAQEB
BQADggEPADCCAQoCggEBAKVtkY5f42jSYZARW4HIhU84qEFZAiCZdgXdtnWH0GIx
1/sy7ZAfq6tFJ6g15I23Snd2rNoQiyZSQ3K1h+ZihN6P/jE8gfNK+H68q5oLVw3E
xfcJK3ylwAPvLxbgw7d7GEhcRA7gv66h9MjzQzkKdaClQWSuWOUhN+xX6Ed07kW5
KQ6BXlSAPrOUhZvmxRFEsUehAY/MGKxfhmD5+pF8yGU8BbtYbTKYm2SX3FkCzrVt
z3PTA3rtQrDd9cPvBIq3xCB7fX/vd9uEH6NPr2w1/Tq6E72TPQnEM0q+UNVV0w7H
KgvGdnVSHhWI1tfEcQI+5nt9VyVeLIDiKcwFWdwp4YECAwEAAaN7MHkwCQYDVR0T
BAIwADAsBglghkgBhvhCAQ0EHxYdT3BlblNTTCBHZW5lcmF0ZWQgQ2VydGlmaWNh
dGUwHQYDVR0OBBYEFLfFLK+Iar6ki85cy2VYj0WixtsDMB8GA1UdIwQYMBaAFDfh
dKkRkwUc9fi/T8fIM/DmQX9eMA0GCSqGSIb3DQEBCwUAA4ICAQC1GlcceeS47bGs
pqjYexpy39KTh/HNfaWxBUtgm2zPsQ1l8EKRqwm7r0swWyqpcR2W1kQRotJIINQz
6wY89fMv6PDyqMyMg/76eK8KZQQYZV1co86DrUvlwJQaMgwaecc9aXfaZFhDUZRu
E8uNfgxerxCglXntgVUw9WytnmbH+sGOPGNwDhlwgwK7SDA2LkqSxWEzVcA2gJlm
1VcqY9Y9dvX3ef0txDPekQv0CUJBEjRcNxhnUqbUl09ft0W0bEz+8e9ZuYr+F853
T5AtIEvkCSpWJpydWlFJWLaJWWFmtETqYbC8lHpySGgia8iRok+Pdj6eycx6vU92
qh8Z57hgjoNA/w/T+WAqxLdBqtGbh/rCincwJ2H3PIrG8+42I8qGBEyAdqxiIeCI
g/2gyKtNbk5YBU4gpPg+27ik5hd8IORqNQvj8plwUJsxS5P0N6L6D5X5ZdHNRSUC
gWWH5sxYj/Gp+mlkOQ++ZlPlNO0q1ds5o9D0RLNFsdomL8kA+ANSEVOkXog917vk
jQNiBXDkjfcEX6qpVNenaHm0voU6gh8A2n7huc+2tu5HEUJllv9AXMp3Kj583HL5
ixF/WNz6oI1IGdzlXjX0+Tc/UuNWlAXvEquba2XeNqT31zbFSu1v/Nu/v/nn1tYK
t2+VffwevGsO8+kZu3qgaoe5qMFdNg==
-----END CERTIFICATE-----
