Certificate:
    Data:
        Version: 3 (0x2)
        Serial Number: 4098 (0x1002)
        Signature Algorithm: sha256WithRSAEncryption
        Issuer: C=VN, ST=Ho Chi Minh, L=quan 5, O=hcmus, OU=thanh-tu, CN=tt2022.com/emailAddress=tt2022@test.com
        Validity
            Not Before: May 25 15:27:15 2022 GMT
            Not After : May 20 15:27:15 2023 GMT
        Subject: C=VN, ST=Ho Chi Minh, L=Quan 1, O=tt, OU=thanh-tu-web-server, CN=tt2022/emailAddress=tt2022@test.com
        Subject Public Key Info:
            Public Key Algorithm: rsaEncryption
                RSA Public-Key: (2048 bit)
                Modulus:
                    00:a5:6d:91:8e:5f:e3:68:d2:61:90:11:5b:81:c8:
                    85:4f:38:a8:41:59:02:20:99:76:05:dd:b6:75:87:
                    d0:62:31:d7:fb:32:ed:90:1f:ab:ab:45:27:a8:35:
                    e4:8d:b7:4a:77:76:ac:da:10:8b:26:52:43:72:b5:
                    87:e6:62:84:de:8f:fe:31:3c:81:f3:4a:f8:7e:bc:
                    ab:9a:0b:57:0d:c4:c5:f7:09:2b:7c:a5:c0:03:ef:
                    2f:16:e0:c3:b7:7b:18:48:5c:44:0e:e0:bf:ae:a1:
                    f4:c8:f3:43:39:0a:75:a0:a5:41:64:ae:58:e5:21:
                    37:ec:57:e8:47:74:ee:45:b9:29:0e:81:5e:54:80:
                    3e:b3:94:85:9b:e6:c5:11:44:b1:47:a1:01:8f:cc:
                    18:ac:5f:86:60:f9:fa:91:7c:c8:65:3c:05:bb:58:
                    6d:32:98:9b:64:97:dc:59:02:ce:b5:6d:cf:73:d3:
                    03:7a:ed:42:b0:dd:f5:c3:ef:04:8a:b7:c4:20:7b:
                    7d:7f:ef:77:db:84:1f:a3:4f:af:6c:35:fd:3a:ba:
                    13:bd:93:3d:09:c4:33:4a:be:50:d5:55:d3:0e:c7:
                    2a:0b:c6:76:75:52:1e:15:88:d6:d7:c4:71:02:3e:
                    e6:7b:7d:57:25:5e:2c:80:e2:29:cc:05:59:dc:29:
                    e1:81
                Exponent: 65537 (0x10001)
        X509v3 extensions:
            X509v3 Basic Constraints: 
                CA:FALSE
            Netscape Comment: 
                OpenSSL Generated Certificate
            X509v3 Subject Key Identifier: 
                B7:C5:2C:AF:88:6A:BE:A4:8B:CE:5C:CB:65:58:8F:45:A2:C6:DB:03
            X509v3 Authority Key Identifier: 
                keyid:37:E1:74:A9:11:93:05:1C:F5:F8:BF:4F:C7:C8:33:F0:E6:41:7F:5E

    Signature Algorithm: sha256WithRSAEncryption
         22:de:e2:2b:9a:3d:f3:48:ec:2d:88:bb:b5:5c:9b:4d:6e:b6:
         4b:78:3f:d3:e0:4e:21:cc:00:28:26:fd:9a:2e:8c:18:47:3d:
         fb:f8:66:9a:9f:c6:cb:c0:1c:f1:12:f9:e2:aa:0e:06:0e:c1:
         0a:45:e9:d4:bb:1b:1b:b3:92:a0:98:88:24:a1:ed:33:4d:94:
         23:24:0e:9f:2d:eb:e7:54:12:37:99:17:98:60:49:65:1f:6e:
         fb:b9:c2:da:50:44:74:c9:d0:01:3e:d8:6f:09:3b:07:d4:62:
         90:50:e2:9b:68:3e:59:f7:ea:47:5a:d5:d6:bb:db:8f:96:83:
         13:57:7c:9a:6a:98:e3:71:eb:8f:9d:cf:aa:68:97:60:bb:bf:
         ed:58:f6:84:b0:c8:09:62:6d:dd:a4:01:44:bf:3a:26:46:93:
         8f:89:01:26:fa:1d:34:0e:89:6d:f7:d9:9d:ed:d4:c8:7a:d2:
         fc:fc:47:33:34:a7:2e:c1:15:d2:47:c2:0c:e2:9b:2b:3c:6b:
         a7:09:a2:d4:aa:8a:79:89:87:eb:84:58:7c:61:26:3c:fc:b6:
         c5:6e:a6:41:a1:b7:7b:76:9f:07:0f:95:3e:b8:76:9d:f9:6f:
         dd:c4:00:a7:5f:90:b8:74:47:01:98:e2:20:5c:9c:f5:ee:06:
         c0:e1:34:a9:0a:54:7c:0b:d4:7d:80:35:e9:27:16:01:f8:ee:
         6a:95:b3:5d:4c:f0:4f:47:b7:20:f2:55:be:3d:fa:f2:8f:2e:
         47:e1:69:30:b7:37:62:1c:b6:f6:21:6c:01:69:92:76:a8:6f:
         9d:81:fd:92:e9:df:b9:27:a4:85:c3:10:54:de:8b:2b:72:cd:
         f8:52:81:9a:48:ac:ce:a2:36:21:9e:70:e1:91:81:39:19:3c:
         0a:f7:3e:14:0b:de:46:5b:0a:4a:00:55:9b:f8:b4:5f:27:c6:
         5a:96:b2:19:62:23:13:ac:e0:63:38:ae:1b:98:01:71:16:d8:
         29:48:33:d3:6e:b9:75:40:2b:73:34:a7:48:a5:ef:bb:98:4d:
         76:36:40:01:4f:c7:07:d8:28:42:d8:08:77:1d:aa:07:cb:2c:
         57:39:d8:d1:0d:72:2b:c3:38:de:23:9e:ea:21:16:20:ac:02:
         a5:af:5b:e8:69:a9:75:76:48:6a:36:a7:e2:50:5f:87:eb:f6:
         d1:ad:55:30:a0:89:da:ac:89:32:a4:a8:be:ab:08:9b:c4:52:
         49:fa:ed:03:94:65:bf:e8:0c:58:bd:c0:f1:b1:9d:40:f2:01:
         0c:d3:26:de:16:88:9c:a4:25:9a:09:88:74:be:41:53:f5:cb:
         7b:dc:f8:7d:f8:8f:ac:a4
-----BEGIN CERTIFICATE-----
MIIFFTCCAv2gAwIBAgICEAIwDQYJKoZIhvcNAQELBQAwgYwxCzAJBgNVBAYTAlZO
MRQwEgYDVQQIDAtIbyBDaGkgTWluaDEPMA0GA1UEBwwGcXVhbiA1MQ4wDAYDVQQK
DAVoY211czERMA8GA1UECwwIdGhhbmgtdHUxEzARBgNVBAMMCnR0MjAyMi5jb20x
HjAcBgkqhkiG9w0BCQEWD3R0MjAyMkB0ZXN0LmNvbTAeFw0yMjA1MjUxNTI3MTVa
Fw0yMzA1MjAxNTI3MTVaMIGQMQswCQYDVQQGEwJWTjEUMBIGA1UECAwLSG8gQ2hp
IE1pbmgxDzANBgNVBAcMBlF1YW4gMTELMAkGA1UECgwCdHQxHDAaBgNVBAsME3Ro
YW5oLXR1LXdlYi1zZXJ2ZXIxDzANBgNVBAMMBnR0MjAyMjEeMBwGCSqGSIb3DQEJ
ARYPdHQyMDIyQHRlc3QuY29tMIIBIjANBgkqhkiG9w0BAQEFAAOCAQ8AMIIBCgKC
AQEApW2Rjl/jaNJhkBFbgciFTzioQVkCIJl2Bd22dYfQYjHX+zLtkB+rq0UnqDXk
jbdKd3as2hCLJlJDcrWH5mKE3o/+MTyB80r4fryrmgtXDcTF9wkrfKXAA+8vFuDD
t3sYSFxEDuC/rqH0yPNDOQp1oKVBZK5Y5SE37FfoR3TuRbkpDoFeVIA+s5SFm+bF
EUSxR6EBj8wYrF+GYPn6kXzIZTwFu1htMpibZJfcWQLOtW3Pc9MDeu1CsN31w+8E
irfEIHt9f+9324Qfo0+vbDX9OroTvZM9CcQzSr5Q1VXTDscqC8Z2dVIeFYjW18Rx
Aj7me31XJV4sgOIpzAVZ3CnhgQIDAQABo3sweTAJBgNVHRMEAjAAMCwGCWCGSAGG
+EIBDQQfFh1PcGVuU1NMIEdlbmVyYXRlZCBDZXJ0aWZpY2F0ZTAdBgNVHQ4EFgQU
t8Usr4hqvqSLzlzLZViPRaLG2wMwHwYDVR0jBBgwFoAUN+F0qRGTBRz1+L9Px8gz
8OZBf14wDQYJKoZIhvcNAQELBQADggIBACLe4iuaPfNI7C2Iu7Vcm01utkt4P9Pg
TiHMACgm/ZoujBhHPfv4ZpqfxsvAHPES+eKqDgYOwQpF6dS7GxuzkqCYiCSh7TNN
lCMkDp8t6+dUEjeZF5hgSWUfbvu5wtpQRHTJ0AE+2G8JOwfUYpBQ4ptoPln36kda
1da724+WgxNXfJpqmONx64+dz6pol2C7v+1Y9oSwyAlibd2kAUS/OiZGk4+JASb6
HTQOiW332Z3t1Mh60vz8RzM0py7BFdJHwgzimys8a6cJotSqinmJh+uEWHxhJjz8
tsVupkGht3t2nwcPlT64dp35b93EAKdfkLh0RwGY4iBcnPXuBsDhNKkKVHwL1H2A
NeknFgH47mqVs11M8E9HtyDyVb49+vKPLkfhaTC3N2IctvYhbAFpknaob52B/ZLp
37knpIXDEFTeiytyzfhSgZpIrM6iNiGecOGRgTkZPAr3PhQL3kZbCkoAVZv4tF8n
xlqWshliIxOs4GM4rhuYAXEW2ClIM9NuuXVAK3M0p0il77uYTXY2QAFPxwfYKELY
CHcdqgfLLFc52NENcivDON4jnuohFiCsAqWvW+hpqXV2SGo2p+JQX4fr9tGtVTCg
idqsiTKkqL6rCJvEUkn67QOUZb/oDFi9wPGxnUDyAQzTJt4WiJykJZoJiHS+QVP1
y3vc+H34j6yk
-----END CERTIFICATE-----
