Certificate:
    Data:
        Version: 3 (0x2)
        Serial Number: 4100 (0x1004)
        Signature Algorithm: sha256WithRSAEncryption
        Issuer: C=VN, ST=Ho Chi Minh, L=quan 5, O=hcmus, OU=thanh-tu, CN=tt2022.com/emailAddress=tt2022@test.com
        Validity
            Not Before: May 25 16:36:06 2022 GMT
            Not After : May 22 16:36:06 2032 GMT
        Subject: C=VN, ST=Ho Chi Minh, L=Quan 1, O=tt, OU=thanh-tu-web-server, CN=tt2022/emailAddress=tt2022@test.com
        Subject Public Key Info:
            Public Key Algorithm: rsaEncryption
                RSA Public-Key: (2048 bit)
                Modulus:
                    00:a5:6d:91:8e:5f:e3:68:d2:61:90:11:5b:81:c8:
                    85:4f:38:a8:41:59:02:20:99:76:05:dd:b6:75:87:
                    d0:62:31:d7:fb:32:ed:90:1f:ab:ab:45:27:a8:35:
                    e4:8d:b7:4a:77:76:ac:da:10:8b:26:52:43:72:b5:
                    87:e6:62:84:de:8f:fe:31:3c:81:f3:4a:f8:7e:bc:
                    ab:9a:0b:57:0d:c4:c5:f7:09:2b:7c:a5:c0:03:ef:
                    2f:16:e0:c3:b7:7b:18:48:5c:44:0e:e0:bf:ae:a1:
                    f4:c8:f3:43:39:0a:75:a0:a5:41:64:ae:58:e5:21:
                    37:ec:57:e8:47:74:ee:45:b9:29:0e:81:5e:54:80:
                    3e:b3:94:85:9b:e6:c5:11:44:b1:47:a1:01:8f:cc:
                    18:ac:5f:86:60:f9:fa:91:7c:c8:65:3c:05:bb:58:
                    6d:32:98:9b:64:97:dc:59:02:ce:b5:6d:cf:73:d3:
                    03:7a:ed:42:b0:dd:f5:c3:ef:04:8a:b7:c4:20:7b:
                    7d:7f:ef:77:db:84:1f:a3:4f:af:6c:35:fd:3a:ba:
                    13:bd:93:3d:09:c4:33:4a:be:50:d5:55:d3:0e:c7:
                    2a:0b:c6:76:75:52:1e:15:88:d6:d7:c4:71:02:3e:
                    e6:7b:7d:57:25:5e:2c:80:e2:29:cc:05:59:dc:29:
                    e1:81
                Exponent: 65537 (0x10001)
        X509v3 extensions:
            X509v3 Basic Constraints: 
                CA:FALSE
            Netscape Comment: 
                OpenSSL Generated Certificate
            X509v3 Subject Key Identifier: 
                B7:C5:2C:AF:88:6A:BE:A4:8B:CE:5C:CB:65:58:8F:45:A2:C6:DB:03
            X509v3 Authority Key Identifier: 
                keyid:37:E1:74:A9:11:93:05:1C:F5:F8:BF:4F:C7:C8:33:F0:E6:41:7F:5E

            X509v3 Subject Alternative Name: 
                DNS:www.tt2022.com, DNS:www.tt2022A.com, DNS:www.tt2022B.com
    Signature Algorithm: sha256WithRSAEncryption
         40:ed:6e:b1:0e:c1:47:10:d0:7e:cb:ac:a4:d8:19:fe:73:59:
         9c:47:c8:76:c9:8b:35:a5:e8:45:15:0c:de:97:79:15:fb:c3:
         7f:af:22:db:0b:c5:5c:1e:82:f2:68:4b:9b:fa:7d:f7:a4:96:
         d6:ae:21:16:c8:82:03:a7:ed:05:e6:69:9c:2b:73:7a:2f:ed:
         32:03:be:ea:43:4f:a3:b0:24:19:a7:94:18:e8:62:ee:ec:03:
         9f:62:a3:60:c9:1a:80:4c:a8:6a:3d:f9:b0:64:c9:7f:20:33:
         e0:76:8d:e1:e8:a5:37:dc:aa:c1:31:ef:a9:dd:d7:70:2c:4a:
         f6:ca:79:e1:1d:52:d2:f8:4b:43:a8:97:4d:ea:e5:1f:d6:f5:
         e6:f7:97:a0:ad:c8:aa:db:b1:e1:1f:18:13:4c:9e:52:3d:fc:
         54:48:9e:47:e1:8b:79:2b:d8:a0:08:a4:24:52:dc:7d:da:7a:
         5c:7d:70:91:1f:5a:04:04:6e:29:76:08:5d:66:ea:34:57:8a:
         64:dd:88:7a:3d:8f:85:ed:6e:fb:20:05:e8:57:c8:04:4d:58:
         46:8a:22:28:05:3b:d1:67:78:10:27:f6:b3:5a:d8:81:2b:bd:
         1b:6d:e5:d5:a3:f9:c1:04:59:42:22:35:5d:80:6b:ae:e0:0c:
         a1:3a:f4:0b:5d:37:29:fb:da:5c:ca:63:e8:f9:65:a8:15:a1:
         78:01:6e:33:03:aa:bd:ec:81:32:cc:d8:b6:d3:e9:e5:66:2e:
         8b:c3:1b:87:91:6c:57:00:e0:44:67:dc:70:94:66:cc:62:9f:
         be:11:6c:de:e8:d2:58:64:15:83:6b:3b:94:0b:63:02:7c:74:
         99:e1:6b:97:0c:df:98:21:82:34:bd:e4:6c:ac:09:ff:84:7a:
         08:56:c6:8f:94:3f:f3:e3:08:e8:c1:1e:7e:ae:ed:de:88:61:
         d9:df:48:82:f6:0e:9e:61:40:b8:a3:aa:49:87:f6:d1:37:0e:
         ce:82:a4:89:b5:84:0a:bd:95:04:b1:8e:1c:cf:71:71:e9:28:
         80:a0:38:3f:6b:14:b7:4a:a9:c2:5f:0d:88:43:93:60:bc:7b:
         1f:eb:3b:f1:a8:bd:f4:6c:0e:e7:92:98:24:b4:82:bf:f4:af:
         fa:80:57:28:94:b1:2f:e7:9a:46:76:d3:19:8c:5d:9b:c3:14:
         09:0a:79:94:ac:81:21:fe:15:e1:8a:b5:93:7b:2d:d9:e2:95:
         bf:43:77:44:22:b0:2a:03:ac:7d:a2:6d:55:c7:d1:ea:3c:fa:
         f8:96:cb:c4:36:37:13:6a:2c:c4:14:cc:6a:25:98:ff:d2:e2:
         91:7a:d4:d4:6e:4b:69:24
-----BEGIN CERTIFICATE-----
MIIFVDCCAzygAwIBAgICEAQwDQYJKoZIhvcNAQELBQAwgYwxCzAJBgNVBAYTAlZO
MRQwEgYDVQQIDAtIbyBDaGkgTWluaDEPMA0GA1UEBwwGcXVhbiA1MQ4wDAYDVQQK
DAVoY211czERMA8GA1UECwwIdGhhbmgtdHUxEzARBgNVBAMMCnR0MjAyMi5jb20x
HjAcBgkqhkiG9w0BCQEWD3R0MjAyMkB0ZXN0LmNvbTAeFw0yMjA1MjUxNjM2MDZa
Fw0zMjA1MjIxNjM2MDZaMIGQMQswCQYDVQQGEwJWTjEUMBIGA1UECAwLSG8gQ2hp
IE1pbmgxDzANBgNVBAcMBlF1YW4gMTELMAkGA1UECgwCdHQxHDAaBgNVBAsME3Ro
YW5oLXR1LXdlYi1zZXJ2ZXIxDzANBgNVBAMMBnR0MjAyMjEeMBwGCSqGSIb3DQEJ
ARYPdHQyMDIyQHRlc3QuY29tMIIBIjANBgkqhkiG9w0BAQEFAAOCAQ8AMIIBCgKC
AQEApW2Rjl/jaNJhkBFbgciFTzioQVkCIJl2Bd22dYfQYjHX+zLtkB+rq0UnqDXk
jbdKd3as2hCLJlJDcrWH5mKE3o/+MTyB80r4fryrmgtXDcTF9wkrfKXAA+8vFuDD
t3sYSFxEDuC/rqH0yPNDOQp1oKVBZK5Y5SE37FfoR3TuRbkpDoFeVIA+s5SFm+bF
EUSxR6EBj8wYrF+GYPn6kXzIZTwFu1htMpibZJfcWQLOtW3Pc9MDeu1CsN31w+8E
irfEIHt9f+9324Qfo0+vbDX9OroTvZM9CcQzSr5Q1VXTDscqC8Z2dVIeFYjW18Rx
Aj7me31XJV4sgOIpzAVZ3CnhgQIDAQABo4G5MIG2MAkGA1UdEwQCMAAwLAYJYIZI
AYb4QgENBB8WHU9wZW5TU0wgR2VuZXJhdGVkIENlcnRpZmljYXRlMB0GA1UdDgQW
BBS3xSyviGq+pIvOXMtlWI9FosbbAzAfBgNVHSMEGDAWgBQ34XSpEZMFHPX4v0/H
yDPw5kF/XjA7BgNVHREENDAygg53d3cudHQyMDIyLmNvbYIPd3d3LnR0MjAyMkEu
Y29tgg93d3cudHQyMDIyQi5jb20wDQYJKoZIhvcNAQELBQADggIBAEDtbrEOwUcQ
0H7LrKTYGf5zWZxHyHbJizWl6EUVDN6XeRX7w3+vItsLxVwegvJoS5v6ffekltau
IRbIggOn7QXmaZwrc3ov7TIDvupDT6OwJBmnlBjoYu7sA59io2DJGoBMqGo9+bBk
yX8gM+B2jeHopTfcqsEx76nd13AsSvbKeeEdUtL4S0Ool03q5R/W9eb3l6CtyKrb
seEfGBNMnlI9/FRInkfhi3kr2KAIpCRS3H3aelx9cJEfWgQEbil2CF1m6jRXimTd
iHo9j4XtbvsgBehXyARNWEaKIigFO9FneBAn9rNa2IErvRtt5dWj+cEEWUIiNV2A
a67gDKE69AtdNyn72lzKY+j5ZagVoXgBbjMDqr3sgTLM2LbT6eVmLovDG4eRbFcA
4ERn3HCUZsxin74RbN7o0lhkFYNrO5QLYwJ8dJnha5cM35ghgjS95GysCf+EeghW
xo+UP/PjCOjBHn6u7d6IYdnfSIL2Dp5hQLijqkmH9tE3Ds6CpIm1hAq9lQSxjhzP
cXHpKICgOD9rFLdKqcJfDYhDk2C8ex/rO/GovfRsDueSmCS0gr/0r/qAVyiUsS/n
mkZ20xmMXZvDFAkKeZSsgSH+FeGKtZN7Ldnilb9Dd0QisCoDrH2ibVXH0eo8+viW
y8Q2NxNqLMQUzGolmP/S4pF61NRuS2kk
-----END CERTIFICATE-----
