Certificate:
    Data:
        Version: 3 (0x2)
        Serial Number: 4102 (0x1006)
        Signature Algorithm: sha256WithRSAEncryption
        Issuer: C=VN, ST=Ho Chi Minh, L=quan 5, O=hcmus, OU=thanh-tu, CN=tt2022.com/emailAddress=tt2022@test.com
        Validity
            Not Before: May 27 01:59:56 2022 GMT
            Not After : May 24 01:59:56 2032 GMT
        Subject: C=VN, O=tt ., CN=tt2022 
        Subject Public Key Info:
            Public Key Algorithm: rsaEncryption
                RSA Public-Key: (2048 bit)
                Modulus:
                    00:d2:c5:ca:63:b9:a8:4d:12:57:ab:b5:1e:66:63:
                    66:1c:ef:cd:15:7d:e2:62:b9:0e:d8:9b:f5:7d:09:
                    03:eb:b0:e0:08:4e:e4:43:b9:c7:1b:9e:6c:c4:ce:
                    a9:6a:0b:b6:7d:b8:ec:3c:89:2e:80:d0:0e:9b:b7:
                    46:d2:fc:a5:10:96:f6:c3:3b:8b:0a:7c:27:92:9f:
                    81:6c:a7:69:d0:8e:7e:f7:09:91:1e:b3:d8:dd:ce:
                    4f:4e:7b:5a:83:56:7e:2a:d9:2e:ef:0f:5a:e5:09:
                    40:86:e4:28:51:4c:8f:d0:fa:6a:18:9c:b4:0a:87:
                    8d:df:18:e5:55:2e:3e:77:66:24:31:32:5f:32:59:
                    d5:e3:1e:8d:f6:7c:8e:0d:be:a3:fc:1f:11:eb:b0:
                    ae:f3:92:0a:59:80:ff:87:51:ae:cd:54:bb:e8:9d:
                    9c:51:d1:91:52:d1:75:e8:4e:70:48:a2:c0:2d:99:
                    49:25:54:88:a2:8a:fb:36:c9:b9:45:a9:2d:54:f0:
                    b9:ba:f9:e4:da:4b:79:d6:a8:0d:a1:29:1e:d3:81:
                    62:70:59:ac:56:7c:bc:f8:db:68:d7:69:91:96:4d:
                    49:62:28:7c:0d:88:bd:a1:bc:1f:98:01:db:b6:b7:
                    d0:90:dc:38:0e:66:3c:ef:7d:2f:e6:08:7d:32:3f:
                    17:29
                Exponent: 65537 (0x10001)
        X509v3 extensions:
            X509v3 Basic Constraints: 
                CA:FALSE
            Netscape Comment: 
                OpenSSL Generated Certificate
            X509v3 Subject Key Identifier: 
                BE:C9:96:3C:67:C9:D7:5E:54:1B:8E:1D:71:3E:38:95:E8:EB:FC:D2
            X509v3 Authority Key Identifier: 
                keyid:37:E1:74:A9:11:93:05:1C:F5:F8:BF:4F:C7:C8:33:F0:E6:41:7F:5E

            X509v3 Subject Alternative Name: 
                DNS:www.tt2022.com, DNS:www.twitter.com, DNS:www.tt2022A.com, DNS:www.tt2022B.com
    Signature Algorithm: sha256WithRSAEncryption
         07:38:2b:fb:3a:10:f7:2a:13:37:82:5e:9c:6e:1a:63:83:ae:
         ba:95:eb:dc:d9:14:1b:e8:1a:98:ac:9f:21:72:9c:79:e3:74:
         a3:1f:ae:88:14:8c:34:59:c9:b9:4c:45:43:88:a5:fa:ab:36:
         53:df:c3:64:df:a1:cf:d6:9c:1a:51:24:8b:d6:01:0a:99:ef:
         8b:8c:d2:d3:de:84:8a:f7:af:20:c5:16:88:72:13:23:4b:d3:
         0a:2b:71:44:6a:fa:0d:c7:04:e2:77:a8:20:70:04:a9:7d:a4:
         f8:2e:11:7c:d3:7a:af:8d:06:76:3d:b3:1e:09:4b:5d:c4:f4:
         91:d0:d0:6e:ad:6b:d9:79:c1:a4:c4:a5:5d:4a:2f:3b:4b:b1:
         b8:79:e4:fc:36:d5:d5:27:aa:c7:93:58:ec:47:29:e9:0a:dd:
         78:77:ab:65:86:b5:06:2d:5d:88:3e:ef:ce:36:1e:b8:b6:1b:
         48:88:74:38:7b:e8:9f:b0:5a:81:b0:32:d5:1c:46:89:16:7f:
         73:ff:73:c1:0a:97:77:66:b1:38:d4:1b:b5:be:fc:2f:70:09:
         5a:4c:6b:c5:8b:e5:7e:42:39:2e:79:02:ea:bc:03:34:b4:59:
         0e:24:74:24:0c:07:d0:29:92:9b:01:68:40:ce:34:8a:8d:cd:
         c3:bb:21:9e:00:fe:61:92:b1:3c:8d:16:fa:77:66:ad:cb:3a:
         91:5f:24:ee:a5:fc:ad:c7:91:0f:15:6f:d6:0c:46:00:da:47:
         ee:52:32:8c:8e:6e:df:3f:82:14:a0:8f:df:6f:09:71:2d:69:
         7b:1e:f2:61:2a:e5:03:8a:4f:9f:2b:06:74:89:cc:04:3b:c6:
         22:7a:16:59:e6:01:4d:3a:d6:14:01:6a:d6:51:d7:0b:35:55:
         60:70:ac:55:e8:fe:bf:03:44:4a:a8:c7:56:0c:e8:49:ca:8e:
         02:a0:57:b2:7e:41:ec:7c:e8:b6:b0:78:c2:c7:26:25:5c:a0:
         19:71:f0:1b:46:f4:d1:93:3e:f2:41:3e:ce:ec:af:31:5b:0d:
         75:4d:29:0c:f3:97:e0:30:f4:f8:1c:20:00:29:70:6b:d3:03:
         8b:9b:75:a8:41:f6:f8:96:09:b1:bd:38:dd:8c:21:4f:2d:79:
         d8:74:28:cc:29:59:78:c7:3c:55:ae:2a:1e:a3:44:71:49:f8:
         20:d7:07:70:49:0e:b6:45:0e:24:e6:51:9b:6d:88:14:8e:ac:
         0e:9c:dd:cb:ff:0b:42:16:8c:fd:a4:c7:b3:b7:06:fc:5a:78:
         1e:71:fe:13:91:e2:04:2b:1e:03:ca:d1:26:d2:75:3d:b6:eb:
         9b:cc:99:08:02:73:a2:31
-----BEGIN CERTIFICATE-----
MIIFAjCCAuqgAwIBAgICEAYwDQYJKoZIhvcNAQELBQAwgYwxCzAJBgNVBAYTAlZO
MRQwEgYDVQQIDAtIbyBDaGkgTWluaDEPMA0GA1UEBwwGcXVhbiA1MQ4wDAYDVQQK
DAVoY211czERMA8GA1UECwwIdGhhbmgtdHUxEzARBgNVBAMMCnR0MjAyMi5jb20x
HjAcBgkqhkiG9w0BCQEWD3R0MjAyMkB0ZXN0LmNvbTAeFw0yMjA1MjcwMTU5NTZa
Fw0zMjA1MjQwMTU5NTZaMC4xCzAJBgNVBAYTAlZOMQ0wCwYDVQQKDAR0dCAuMRAw
DgYDVQQDDAd0dDIwMjIgMIIBIjANBgkqhkiG9w0BAQEFAAOCAQ8AMIIBCgKCAQEA
0sXKY7moTRJXq7UeZmNmHO/NFX3iYrkO2Jv1fQkD67DgCE7kQ7nHG55sxM6pagu2
fbjsPIkugNAOm7dG0vylEJb2wzuLCnwnkp+BbKdp0I5+9wmRHrPY3c5PTntag1Z+
Ktku7w9a5QlAhuQoUUyP0PpqGJy0CoeN3xjlVS4+d2YkMTJfMlnV4x6N9nyODb6j
/B8R67Cu85IKWYD/h1GuzVS76J2cUdGRUtF16E5wSKLALZlJJVSIoor7Nsm5Rakt
VPC5uvnk2kt51qgNoSke04FicFmsVny8+Nto12mRlk1JYih8DYi9obwfmAHbtrfQ
kNw4DmY8730v5gh9Mj8XKQIDAQABo4HKMIHHMAkGA1UdEwQCMAAwLAYJYIZIAYb4
QgENBB8WHU9wZW5TU0wgR2VuZXJhdGVkIENlcnRpZmljYXRlMB0GA1UdDgQWBBS+
yZY8Z8nXXlQbjh1xPjiV6Ov80jAfBgNVHSMEGDAWgBQ34XSpEZMFHPX4v0/HyDPw
5kF/XjBMBgNVHREERTBDgg53d3cudHQyMDIyLmNvbYIPd3d3LnR3aXR0ZXIuY29t
gg93d3cudHQyMDIyQS5jb22CD3d3dy50dDIwMjJCLmNvbTANBgkqhkiG9w0BAQsF
AAOCAgEABzgr+zoQ9yoTN4JenG4aY4OuupXr3NkUG+gamKyfIXKceeN0ox+uiBSM
NFnJuUxFQ4il+qs2U9/DZN+hz9acGlEki9YBCpnvi4zS096EivevIMUWiHITI0vT
CitxRGr6DccE4neoIHAEqX2k+C4RfNN6r40Gdj2zHglLXcT0kdDQbq1r2XnBpMSl
XUovO0uxuHnk/DbV1Seqx5NY7Ecp6QrdeHerZYa1Bi1diD7vzjYeuLYbSIh0OHvo
n7BagbAy1RxGiRZ/c/9zwQqXd2axONQbtb78L3AJWkxrxYvlfkI5LnkC6rwDNLRZ
DiR0JAwH0CmSmwFoQM40io3Nw7shngD+YZKxPI0W+ndmrcs6kV8k7qX8rceRDxVv
1gxGANpH7lIyjI5u3z+CFKCP328JcS1pex7yYSrlA4pPnysGdInMBDvGInoWWeYB
TTrWFAFq1lHXCzVVYHCsVej+vwNESqjHVgzoScqOAqBXsn5B7HzotrB4wscmJVyg
GXHwG0b00ZM+8kE+zuyvMVsNdU0pDPOX4DD0+BwgAClwa9MDi5t1qEH2+JYJsb04
3YwhTy152HQozClZeMc8Va4qHqNEcUn4INcHcEkOtkUOJOZRm22IFI6sDpzdy/8L
QhaM/aTHs7cG/Fp4HnH+E5HiBCseA8rRJtJ1Pbbrm8yZCAJzojE=
-----END CERTIFICATE-----
